target datalayout = "e-m:e-p270:32:32-p271:32:32-p272:64:64-i64:64-i128:128-f80:128-n8:16:32:64-S128"
target triple = "x86_64-pc-linux-gnu"

%class.DfgVertex = type { ptr, %class.V3ListLinks, ptr, ptr, ptr, ptr, %class.VDfgType, i32, ptr }
%class.V3ListLinks = type { ptr, ptr }
%class.VDfgType = type { i16 }
%class.DfgEdge = type { ptr, ptr, ptr, ptr }

; Function Attrs: mustprogress nounwind uwtable
define dso_local void @_ZN7DfgEdge12unlinkSourceEv(ptr noundef nonnull align 8 dereferenceable(32) %0) #5 align 2 {
  %2 = alloca ptr, align 8
  store ptr %0, ptr %2, align 8
  %3 = load ptr, ptr %2, align 8
  %4 = getelementptr inbounds %class.DfgEdge, ptr %3, i32 0, i32 2
  %5 = load ptr, ptr %4, align 8
  %6 = icmp ne ptr %5, null
  br i1 %6, label %8, label %7

7:                                                ; preds = %1
  br label %44

8:                                                ; preds = %1
  %9 = getelementptr inbounds %class.DfgEdge, ptr %3, i32 0, i32 1
  %10 = load ptr, ptr %9, align 8
  %11 = icmp ne ptr %10, null
  br i1 %11, label %12, label %18

12:                                               ; preds = %8
  %13 = getelementptr inbounds %class.DfgEdge, ptr %3, i32 0, i32 0
  %14 = load ptr, ptr %13, align 8
  %15 = getelementptr inbounds %class.DfgEdge, ptr %3, i32 0, i32 1
  %16 = load ptr, ptr %15, align 8
  %17 = getelementptr inbounds %class.DfgEdge, ptr %16, i32 0, i32 0
  store ptr %14, ptr %17, align 8
  br label %18

18:                                               ; preds = %12, %8
  %19 = getelementptr inbounds %class.DfgEdge, ptr %3, i32 0, i32 0
  %20 = load ptr, ptr %19, align 8
  %21 = icmp ne ptr %20, null
  br i1 %21, label %22, label %28

22:                                               ; preds = %18
  %23 = getelementptr inbounds %class.DfgEdge, ptr %3, i32 0, i32 1
  %24 = load ptr, ptr %23, align 8
  %25 = getelementptr inbounds %class.DfgEdge, ptr %3, i32 0, i32 0
  %26 = load ptr, ptr %25, align 8
  %27 = getelementptr inbounds %class.DfgEdge, ptr %26, i32 0, i32 1
  store ptr %24, ptr %27, align 8
  br label %28

28:                                               ; preds = %22, %18
  %29 = getelementptr inbounds %class.DfgEdge, ptr %3, i32 0, i32 2
  %30 = load ptr, ptr %29, align 8
  %31 = getelementptr inbounds %class.DfgVertex, ptr %30, i32 0, i32 2
  %32 = load ptr, ptr %31, align 8
  %33 = icmp eq ptr %32, %3
  br i1 %33, label %34, label %40

34:                                               ; preds = %28
  %35 = getelementptr inbounds %class.DfgEdge, ptr %3, i32 0, i32 0
  %36 = load ptr, ptr %35, align 8
  %37 = getelementptr inbounds %class.DfgEdge, ptr %3, i32 0, i32 2
  %38 = load ptr, ptr %37, align 8
  %39 = getelementptr inbounds %class.DfgVertex, ptr %38, i32 0, i32 2
  store ptr %36, ptr %39, align 8
  br label %40

40:                                               ; preds = %34, %28
  %41 = getelementptr inbounds %class.DfgEdge, ptr %3, i32 0, i32 2
  store ptr null, ptr %41, align 8
  %42 = getelementptr inbounds %class.DfgEdge, ptr %3, i32 0, i32 1
  store ptr null, ptr %42, align 8
  %43 = getelementptr inbounds %class.DfgEdge, ptr %3, i32 0, i32 0
  store ptr null, ptr %43, align 8
  br label %44

44:                                               ; preds = %40, %7
  ret void
}

; Function Attrs: mustprogress nounwind uwtable
define dso_local void @_ZN7DfgEdge12relinkSourceEP9DfgVertex(ptr noundef nonnull align 8 dereferenceable(32) %0, ptr noundef %1) #5 align 2 {
  %3 = alloca ptr, align 8
  %4 = alloca ptr, align 8
  store ptr %0, ptr %3, align 8
  store ptr %1, ptr %4, align 8
  %5 = load ptr, ptr %3, align 8
  call void @_ZN7DfgEdge12unlinkSourceEv(ptr noundef nonnull align 8 dereferenceable(32) %5)
  %6 = load ptr, ptr %4, align 8
  %7 = getelementptr inbounds %class.DfgEdge, ptr %5, i32 0, i32 2
  store ptr %6, ptr %7, align 8
  %8 = load ptr, ptr %4, align 8
  %9 = getelementptr inbounds %class.DfgVertex, ptr %8, i32 0, i32 2
  %10 = load ptr, ptr %9, align 8
  %11 = getelementptr inbounds %class.DfgEdge, ptr %5, i32 0, i32 0
  store ptr %10, ptr %11, align 8
  %12 = getelementptr inbounds %class.DfgEdge, ptr %5, i32 0, i32 0
  %13 = load ptr, ptr %12, align 8
  %14 = icmp ne ptr %13, null
  br i1 %14, label %15, label %19

15:                                               ; preds = %2
  %16 = getelementptr inbounds %class.DfgEdge, ptr %5, i32 0, i32 0
  %17 = load ptr, ptr %16, align 8
  %18 = getelementptr inbounds %class.DfgEdge, ptr %17, i32 0, i32 1
  store ptr %5, ptr %18, align 8
  br label %19

19:                                               ; preds = %15, %2
  %20 = load ptr, ptr %4, align 8
  %21 = getelementptr inbounds %class.DfgVertex, ptr %20, i32 0, i32 2
  store ptr %5, ptr %21, align 8
  ret void
}