; Function Attrs: mustprogress nofree norecurse nosync nounwind willreturn memory(readwrite, inaccessiblemem: none) uwtable
define dso_local void @_ZN7DfgEdge12relinkSourceEP9DfgVertex(ptr noundef nonnull align 8 dereferenceable(32) %0, ptr noundef %1) #8 align 2 {
  %3 = getelementptr inbounds i8, ptr %0, i64 16
  %4 = load ptr, ptr %3, align 8
  %.not.i = icmp eq ptr %4, null
  br i1 %.not.i, label %_ZN7DfgEdge12unlinkSourceEv.exit, label %5

5:                                                ; preds = %2
  %6 = getelementptr inbounds i8, ptr %0, i64 8
  %7 = load ptr, ptr %6, align 8
  %.not3.i = icmp eq ptr %7, null
  %.pre.i = load ptr, ptr %0, align 8
  br i1 %.not3.i, label %9, label %8

8:                                                ; preds = %5
  store ptr %.pre.i, ptr %7, align 8
  br label %9

9:                                                ; preds = %8, %5
  %.not4.i = icmp eq ptr %.pre.i, null
  br i1 %.not4.i, label %13, label %10

10:                                               ; preds = %9
  %11 = load ptr, ptr %6, align 8
  %12 = getelementptr inbounds i8, ptr %.pre.i, i64 8
  store ptr %11, ptr %12, align 8
  br label %13

13:                                               ; preds = %10, %9
  %14 = load ptr, ptr %3, align 8
  %15 = getelementptr inbounds i8, ptr %14, i64 24
  %16 = load ptr, ptr %15, align 8
  %17 = icmp eq ptr %16, %0
  br i1 %17, label %18, label %20

18:                                               ; preds = %13
  %19 = load ptr, ptr %0, align 8
  store ptr %19, ptr %15, align 8
  br label %20

20:                                               ; preds = %18, %13
  tail call void @llvm.memset.p0.i64(ptr noundef nonnull align 8 dereferenceable(24) %0, i8 0, i64 16, i1 false)
  br label %_ZN7DfgEdge12unlinkSourceEv.exit

_ZN7DfgEdge12unlinkSourceEv.exit:                 ; preds = %2, %20
  store ptr %1, ptr %3, align 8
  %21 = getelementptr inbounds i8, ptr %1, i64 24
  %22 = load ptr, ptr %21, align 8
  store ptr %22, ptr %0, align 8
  %.not = icmp eq ptr %22, null
  br i1 %.not, label %25, label %23

23:                                               ; preds = %_ZN7DfgEdge12unlinkSourceEv.exit
  %24 = getelementptr inbounds i8, ptr %22, i64 8
  store ptr %0, ptr %24, align 8
  br label %25

25:                                               ; preds = %23, %_ZN7DfgEdge12unlinkSourceEv.exit
  store ptr %0, ptr %21, align 8
  ret void
}